; ModuleID = '45/282.c'
source_filename = "45/282.c"
target datalayout = "e-m:e-p270:32:32-p271:32:32-p272:64:64-i64:64-f80:128-n8:16:32:64-S128"
target triple = "x86_64-pc-linux-gnu"

@.str = private unnamed_addr constant [6 x i8] c"%s %s\00", align 1
@.str.1 = private unnamed_addr constant [4 x i8] c"%d\0A\00", align 1

; Function Attrs: noinline nounwind uwtable
define dso_local void @main() #0 {
  %1 = alloca [80 x i8], align 16
  %2 = alloca [80 x i8], align 16
  %3 = alloca i32, align 4
  %4 = alloca i32, align 4
  %5 = alloca i32, align 4
  %6 = alloca i32, align 4
  %7 = alloca i32, align 4
  %8 = alloca i32, align 4
  %9 = getelementptr inbounds [80 x i8], [80 x i8]* %1, i64 0, i64 0
  %10 = getelementptr inbounds [80 x i8], [80 x i8]* %2, i64 0, i64 0
  %11 = call i32 (i8*, ...) @__isoc99_scanf(i8* getelementptr inbounds ([6 x i8], [6 x i8]* @.str, i64 0, i64 0), i8* %9, i8* %10)
  %12 = getelementptr inbounds [80 x i8], [80 x i8]* %1, i64 0, i64 0
  %13 = call i64 @strlen(i8* %12) #3
  %14 = trunc i64 %13 to i32
  store i32 %14, i32* %3, align 4
  %15 = getelementptr inbounds [80 x i8], [80 x i8]* %2, i64 0, i64 0
  %16 = call i64 @strlen(i8* %15) #3
  %17 = trunc i64 %16 to i32
  store i32 %17, i32* %4, align 4
  store i32 0, i32* %5, align 4
  br label %18

18:                                               ; preds = %69, %0
  %19 = load i32, i32* %5, align 4
  %20 = load i32, i32* %4, align 4
  %21 = icmp slt i32 %19, %20
  br i1 %21, label %22, label %72

22:                                               ; preds = %18
  %23 = load i32, i32* %5, align 4
  %24 = sext i32 %23 to i64
  %25 = getelementptr inbounds [80 x i8], [80 x i8]* %2, i64 0, i64 %24
  %26 = load i8, i8* %25, align 1
  %27 = sext i8 %26 to i32
  %28 = getelementptr inbounds [80 x i8], [80 x i8]* %1, i64 0, i64 0
  %29 = load i8, i8* %28, align 16
  %30 = sext i8 %29 to i32
  %31 = icmp eq i32 %27, %30
  br i1 %31, label %32, label %68

32:                                               ; preds = %22
  %33 = load i32, i32* %5, align 4
  store i32 %33, i32* %6, align 4
  store i32 0, i32* %7, align 4
  br label %34

34:                                               ; preds = %56, %32
  %35 = load i32, i32* %6, align 4
  %36 = load i32, i32* %4, align 4
  %37 = icmp slt i32 %35, %36
  %38 = zext i1 %37 to i32
  %39 = load i32, i32* %7, align 4
  %40 = load i32, i32* %3, align 4
  %41 = icmp slt i32 %39, %40
  br i1 %41, label %42, label %61

42:                                               ; preds = %34
  %43 = load i32, i32* %6, align 4
  %44 = sext i32 %43 to i64
  %45 = getelementptr inbounds [80 x i8], [80 x i8]* %2, i64 0, i64 %44
  %46 = load i8, i8* %45, align 1
  %47 = load i32, i32* %7, align 4
  %48 = sext i32 %47 to i64
  %49 = getelementptr inbounds [80 x i8], [80 x i8]* %1, i64 0, i64 %48
  store i8 %46, i8* %49, align 1
  %50 = icmp ne i8 %46, 0
  br i1 %50, label %51, label %54

51:                                               ; preds = %42
  %52 = load i32, i32* %8, align 4
  %53 = add nsw i32 %52, 1
  store i32 %53, i32* %8, align 4
  br label %55

54:                                               ; preds = %42
  br label %61

55:                                               ; preds = %51
  br label %56

56:                                               ; preds = %55
  %57 = load i32, i32* %7, align 4
  %58 = add nsw i32 %57, 1
  store i32 %58, i32* %7, align 4
  %59 = load i32, i32* %6, align 4
  %60 = add nsw i32 %59, 1
  store i32 %60, i32* %6, align 4
  br label %34

61:                                               ; preds = %54, %34
  %62 = load i32, i32* %3, align 4
  store i32 %62, i32* %8, align 4
  %63 = icmp ne i32 %62, 0
  br i1 %63, label %64, label %67

64:                                               ; preds = %61
  %65 = load i32, i32* %5, align 4
  %66 = call i32 (i8*, ...) @printf(i8* getelementptr inbounds ([4 x i8], [4 x i8]* @.str.1, i64 0, i64 0), i32 %65)
  br label %72

67:                                               ; preds = %61
  br label %68

68:                                               ; preds = %67, %22
  br label %69

69:                                               ; preds = %68
  %70 = load i32, i32* %5, align 4
  %71 = add nsw i32 %70, 1
  store i32 %71, i32* %5, align 4
  br label %18

72:                                               ; preds = %64, %18
  ret void
}

declare dso_local i32 @__isoc99_scanf(i8*, ...) #1

; Function Attrs: nounwind readonly
declare dso_local i64 @strlen(i8*) #2

declare dso_local i32 @printf(i8*, ...) #1


!llvm.module.flags = !{!0}
!llvm.ident = !{!1}

!0 = !{i32 1, !"wchar_size", i32 4}
!1 = !{!"clang version 10.0.0-4ubuntu1 "}
